target datalayout = "e-m:e-p270:32:32-p271:32:32-p272:64:64-i64:64-i128:128-f80:128-n8:16:32:64-S128"
target triple = "x86_64-pc-linux-gnu"

%struct.__sigset_t = type { [16 x i64] }
%struct.__jmp_buf_tag = type { [8 x i64], i32, %struct.__sigset_t }
%struct.AutoVacuumWorkItem = type { i32, i8, i8, i32, i32, i32 }

@.str.1 = private unnamed_addr constant [13 x i8] c"autovacuum.c\00", align 1
@AutovacMemCxt = internal global ptr null, align 8
@error_context_stack = external global ptr, align 8
@InterruptHoldoffCount = external global i32, align 4
@QueryCancelPending = external global i32, align 4
@PG_exception_stack = external global ptr, align 8
@MyDatabaseId = external global i32, align 4
@CurrentMemoryContext = external global ptr, align 8
@PortalContext = external global ptr, align 8
@.str.48 = private unnamed_addr constant [9 x i8] c" %s.%s%s\00", align 1
@.str.50 = private unnamed_addr constant [38 x i8] c"unrecognized work item found: type %d\00", align 1
@__func__.perform_work_item = private unnamed_addr constant [18 x i8] c"perform_work_item\00", align 1
@.str.51 = private unnamed_addr constant [46 x i8] c"processing work entry for relation \22%s.%s.%s\22\00", align 1
@.str.52 = private unnamed_addr constant [27 x i8] c"autovacuum: BRIN summarize\00", align 1
@.str.53 = private unnamed_addr constant [4 x i8] c" %u\00", align 1

; Function Attrs: inlinehint nounwind uwtable
define internal zeroext i1 @BlockNumberIsValid(i32 noundef %0) #6 {
  %2 = alloca i32, align 4
  store i32 %0, ptr %2, align 4
  %3 = load i32, ptr %2, align 4
  %4 = icmp ne i32 %3, -1
  ret i1 %4
}

; Function Attrs: inlinehint nounwind uwtable
define internal i64 @Int64GetDatum(i64 noundef %0) #6 {
  %2 = alloca i64, align 8
  store i64 %0, ptr %2, align 8
  %3 = load i64, ptr %2, align 8
  ret i64 %3
}

; Function Attrs: inlinehint nounwind uwtable
define internal i64 @ObjectIdGetDatum(i32 noundef %0) #6 {
  %2 = alloca i32, align 4
  store i32 %0, ptr %2, align 4
  %3 = load i32, ptr %2, align 4
  %4 = zext i32 %3 to i64
  ret i64 %4
}

; Function Attrs: inlinehint nounwind uwtable
define internal ptr @MemoryContextSwitchTo(ptr noundef %0) #6 {
  %2 = alloca ptr, align 8
  %3 = alloca ptr, align 8
  store ptr %0, ptr %2, align 8
  call void @llvm.lifetime.start.p0(i64 8, ptr %3) #14
  %4 = load ptr, ptr @CurrentMemoryContext, align 8
  store ptr %4, ptr %3, align 8
  %5 = load ptr, ptr %2, align 8
  store ptr %5, ptr @CurrentMemoryContext, align 8
  %6 = load ptr, ptr %3, align 8
  call void @llvm.lifetime.end.p0(i64 8, ptr %3) #14
  ret ptr %6
}

; Function Attrs: nounwind uwtable
define internal void @autovac_report_workitem(ptr noundef %0, ptr noundef %1, ptr noundef %2) #4 {
  %4 = alloca ptr, align 8
  %5 = alloca ptr, align 8
  %6 = alloca ptr, align 8
  %7 = alloca [198 x i8], align 16
  %8 = alloca [14 x i8], align 1
  %9 = alloca i32, align 4
  store ptr %0, ptr %4, align 8
  store ptr %1, ptr %5, align 8
  store ptr %2, ptr %6, align 8
  call void @llvm.lifetime.start.p0(i64 198, ptr %7) #14
  call void @llvm.lifetime.start.p0(i64 14, ptr %8) #14
  call void @llvm.lifetime.start.p0(i64 4, ptr %9) #14
  %10 = load ptr, ptr %4, align 8
  %11 = getelementptr inbounds nuw %struct.AutoVacuumWorkItem, ptr %10, i32 0, i32 0
  %12 = load i32, ptr %11, align 4
  switch i32 %12, label %16 [
    i32 0, label %13
  ]

13:                                               ; preds = %3
  %14 = getelementptr inbounds [198 x i8], ptr %7, i64 0, i64 0
  %15 = call i32 (ptr, i64, ptr, ...) @pg_snprintf(ptr noundef %14, i64 noundef 184, ptr noundef @.str.52)
  br label %16

16:                                               ; preds = %3, %13
  %17 = getelementptr inbounds [198 x i8], ptr %7, i64 0, i64 0
  %18 = call i64 @strlen(ptr noundef %17) #18
  %19 = trunc i64 %18 to i32
  store i32 %19, ptr %9, align 4
  %20 = load ptr, ptr %4, align 8
  %21 = getelementptr inbounds nuw %struct.AutoVacuumWorkItem, ptr %20, i32 0, i32 5
  %22 = load i32, ptr %21, align 4
  %23 = call zeroext i1 @BlockNumberIsValid(i32 noundef %22)
  br i1 %23, label %24, label %30

24:                                               ; preds = %16
  %25 = getelementptr inbounds [14 x i8], ptr %8, i64 0, i64 0
  %26 = load ptr, ptr %4, align 8
  %27 = getelementptr inbounds nuw %struct.AutoVacuumWorkItem, ptr %26, i32 0, i32 5
  %28 = load i32, ptr %27, align 4
  %29 = call i32 (ptr, i64, ptr, ...) @pg_snprintf(ptr noundef %25, i64 noundef 14, ptr noundef @.str.53, i32 noundef %28)
  br label %32

30:                                               ; preds = %16
  %31 = getelementptr inbounds [14 x i8], ptr %8, i64 0, i64 0
  store i8 0, ptr %31, align 1
  br label %32

32:                                               ; preds = %30, %24
  %33 = getelementptr inbounds [198 x i8], ptr %7, i64 0, i64 0
  %34 = load i32, ptr %9, align 4
  %35 = sext i32 %34 to i64
  %36 = getelementptr inbounds i8, ptr %33, i64 %35
  %37 = load i32, ptr %9, align 4
  %38 = sub i32 184, %37
  %39 = sext i32 %38 to i64
  %40 = load ptr, ptr %5, align 8
  %41 = load ptr, ptr %6, align 8
  %42 = getelementptr inbounds [14 x i8], ptr %8, i64 0, i64 0
  %43 = call i32 (ptr, i64, ptr, ...) @pg_snprintf(ptr noundef %36, i64 noundef %39, ptr noundef @.str.48, ptr noundef %40, ptr noundef %41, ptr noundef %42)
  call void @SetCurrentStatementStartTimestamp()
  %44 = getelementptr inbounds [198 x i8], ptr %7, i64 0, i64 0
  call void @pgstat_report_activity(i32 noundef 2, ptr noundef %44)
  call void @llvm.lifetime.end.p0(i64 4, ptr %9) #14
  call void @llvm.lifetime.end.p0(i64 14, ptr %8) #14
  call void @llvm.lifetime.end.p0(i64 198, ptr %7) #14
  ret void
}

; Function Attrs: nounwind uwtable
define internal void @perform_work_item(ptr noundef %0) #4 {
  %2 = alloca ptr, align 8
  %3 = alloca ptr, align 8
  %4 = alloca ptr, align 8
  %5 = alloca ptr, align 8
  %6 = alloca ptr, align 8
  %7 = alloca ptr, align 8
  %8 = alloca [1 x %struct.__jmp_buf_tag], align 16
  %9 = alloca i8, align 1
  store ptr %0, ptr %2, align 8
  call void @llvm.lifetime.start.p0(i64 8, ptr %3) #14
  store ptr null, ptr %3, align 8
  call void @llvm.lifetime.start.p0(i64 8, ptr %4) #14
  store ptr null, ptr %4, align 8
  call void @llvm.lifetime.start.p0(i64 8, ptr %5) #14
  store ptr null, ptr %5, align 8
  %10 = load ptr, ptr %2, align 8
  %11 = getelementptr inbounds nuw %struct.AutoVacuumWorkItem, ptr %10, i32 0, i32 4
  %12 = load i32, ptr %11, align 4
  %13 = call ptr @get_rel_name(i32 noundef %12)
  store ptr %13, ptr %5, align 8
  %14 = load ptr, ptr %2, align 8
  %15 = getelementptr inbounds nuw %struct.AutoVacuumWorkItem, ptr %14, i32 0, i32 4
  %16 = load i32, ptr %15, align 4
  %17 = call i32 @get_rel_namespace(i32 noundef %16)
  %18 = call ptr @get_namespace_name(i32 noundef %17)
  store ptr %18, ptr %4, align 8
  %19 = load i32, ptr @MyDatabaseId, align 4
  %20 = call ptr @get_database_name(i32 noundef %19)
  store ptr %20, ptr %3, align 8
  %21 = load ptr, ptr %5, align 8
  %22 = icmp ne ptr %21, null
  br i1 %22, label %23, label %29

23:                                               ; preds = %1
  %24 = load ptr, ptr %4, align 8
  %25 = icmp ne ptr %24, null
  br i1 %25, label %26, label %29

26:                                               ; preds = %23
  %27 = load ptr, ptr %3, align 8
  %28 = icmp ne ptr %27, null
  br i1 %28, label %30, label %29

29:                                               ; preds = %26, %23, %1
  br label %100

30:                                               ; preds = %26
  %31 = load ptr, ptr %2, align 8
  %32 = load ptr, ptr %4, align 8
  %33 = load ptr, ptr %5, align 8
  call void @autovac_report_workitem(ptr noundef %31, ptr noundef %32, ptr noundef %33)
  %34 = load ptr, ptr @PortalContext, align 8
  call void @MemoryContextReset(ptr noundef %34)
  br label %35

35:                                               ; preds = %30
  call void @llvm.lifetime.start.p0(i64 8, ptr %6) #14
  %36 = load ptr, ptr @PG_exception_stack, align 8
  store ptr %36, ptr %6, align 8
  call void @llvm.lifetime.start.p0(i64 8, ptr %7) #14
  %37 = load ptr, ptr @error_context_stack, align 8
  store ptr %37, ptr %7, align 8
  call void @llvm.lifetime.start.p0(i64 200, ptr %8) #14
  call void @llvm.lifetime.start.p0(i64 1, ptr %9) #14
  store i8 0, ptr %9, align 1
  %38 = getelementptr inbounds [1 x %struct.__jmp_buf_tag], ptr %8, i64 0, i64 0
  %39 = call i32 @__sigsetjmp(ptr noundef %38, i32 noundef 0) #16
  %40 = icmp eq i32 %39, 0
  br i1 %40, label %41, label %73

41:                                               ; preds = %35
  store ptr %8, ptr @PG_exception_stack, align 8
  %42 = load ptr, ptr @PortalContext, align 8
  %43 = call ptr @MemoryContextSwitchTo(ptr noundef %42)
  %44 = load ptr, ptr %2, align 8
  %45 = getelementptr inbounds nuw %struct.AutoVacuumWorkItem, ptr %44, i32 0, i32 0
  %46 = load i32, ptr %45, align 4
  switch i32 %46, label %58 [
    i32 0, label %47
  ]

47:                                               ; preds = %41
  %48 = load ptr, ptr %2, align 8
  %49 = getelementptr inbounds nuw %struct.AutoVacuumWorkItem, ptr %48, i32 0, i32 4
  %50 = load i32, ptr %49, align 4
  %51 = call i64 @ObjectIdGetDatum(i32 noundef %50)
  %52 = load ptr, ptr %2, align 8
  %53 = getelementptr inbounds nuw %struct.AutoVacuumWorkItem, ptr %52, i32 0, i32 5
  %54 = load i32, ptr %53, align 4
  %55 = zext i32 %54 to i64
  %56 = call i64 @Int64GetDatum(i64 noundef %55)
  %57 = call i64 @DirectFunctionCall2Coll(ptr noundef @brin_summarize_range, i32 noundef 0, i64 noundef %51, i64 noundef %56)
  br label %72

58:                                               ; preds = %41
  br label %59

59:                                               ; preds = %58
  br i1 false, label %60, label %62

60:                                               ; preds = %59
  %61 = call zeroext i1 @errstart_cold(i32 noundef 19, ptr noundef null) #15
  br i1 %61, label %64, label %69

62:                                               ; preds = %59
  %63 = call zeroext i1 @errstart(i32 noundef 19, ptr noundef null)
  br i1 %63, label %64, label %69

64:                                               ; preds = %62, %60
  %65 = load ptr, ptr %2, align 8
  %66 = getelementptr inbounds nuw %struct.AutoVacuumWorkItem, ptr %65, i32 0, i32 0
  %67 = load i32, ptr %66, align 4
  %68 = call i32 (ptr, ...) @errmsg_internal(ptr noundef @.str.50, i32 noundef %67)
  call void @errfinish(ptr noundef @.str.1, i32 noundef 2629, ptr noundef @__func__.perform_work_item)
  br label %69

69:                                               ; preds = %64, %62, %60
  br label %70

70:                                               ; preds = %69
  br label %71

71:                                               ; preds = %70
  br label %72

72:                                               ; preds = %71, %47
  store volatile i32 0, ptr @QueryCancelPending, align 4
  br label %89

73:                                               ; preds = %35
  %74 = load ptr, ptr %6, align 8
  store ptr %74, ptr @PG_exception_stack, align 8
  %75 = load ptr, ptr %7, align 8
  store ptr %75, ptr @error_context_stack, align 8
  %76 = load volatile i32, ptr @InterruptHoldoffCount, align 4
  %77 = add i32 %76, 1
  store volatile i32 %77, ptr @InterruptHoldoffCount, align 4
  %78 = call i32 @set_errcontext_domain(ptr noundef null)
  %79 = load ptr, ptr %3, align 8
  %80 = load ptr, ptr %4, align 8
  %81 = load ptr, ptr %5, align 8
  %82 = call i32 (ptr, ...) @errcontext_msg(ptr noundef @.str.51, ptr noundef %79, ptr noundef %80, ptr noundef %81)
  call void @EmitErrorReport()
  call void @AbortOutOfAnyTransaction()
  call void @FlushErrorState()
  %83 = load ptr, ptr @PortalContext, align 8
  call void @MemoryContextReset(ptr noundef %83)
  call void @StartTransactionCommand()
  br label %84

84:                                               ; preds = %73
  %85 = load volatile i32, ptr @InterruptHoldoffCount, align 4
  %86 = add i32 %85, -1
  store volatile i32 %86, ptr @InterruptHoldoffCount, align 4
  br label %87

87:                                               ; preds = %84
  br label %88

88:                                               ; preds = %87
  br label %89

89:                                               ; preds = %88, %72
  %90 = load i8, ptr %9, align 1, !range !6, !noundef !7
  %91 = trunc i8 %90 to i1
  br i1 %91, label %92, label %93

92:                                               ; preds = %89
  call void @pg_re_throw() #17
  unreachable

93:                                               ; preds = %89
  %94 = load ptr, ptr %6, align 8
  store ptr %94, ptr @PG_exception_stack, align 8
  %95 = load ptr, ptr %7, align 8
  store ptr %95, ptr @error_context_stack, align 8
  call void @llvm.lifetime.end.p0(i64 1, ptr %9) #14
  call void @llvm.lifetime.end.p0(i64 200, ptr %8) #14
  call void @llvm.lifetime.end.p0(i64 8, ptr %7) #14
  call void @llvm.lifetime.end.p0(i64 8, ptr %6) #14
  br label %96

96:                                               ; preds = %93
  br label %97

97:                                               ; preds = %96
  %98 = load ptr, ptr @AutovacMemCxt, align 8
  %99 = call ptr @MemoryContextSwitchTo(ptr noundef %98)
  br label %100

100:                                              ; preds = %97, %29
  %101 = load ptr, ptr %3, align 8
  %102 = icmp ne ptr %101, null
  br i1 %102, label %103, label %105

103:                                              ; preds = %100
  %104 = load ptr, ptr %3, align 8
  call void @pfree(ptr noundef %104)
  br label %105

105:                                              ; preds = %103, %100
  %106 = load ptr, ptr %4, align 8
  %107 = icmp ne ptr %106, null
  br i1 %107, label %108, label %110

108:                                              ; preds = %105
  %109 = load ptr, ptr %4, align 8
  call void @pfree(ptr noundef %109)
  br label %110

110:                                              ; preds = %108, %105
  %111 = load ptr, ptr %5, align 8
  %112 = icmp ne ptr %111, null
  br i1 %112, label %113, label %115

113:                                              ; preds = %110
  %114 = load ptr, ptr %5, align 8
  call void @pfree(ptr noundef %114)
  br label %115

115:                                              ; preds = %113, %110
  call void @llvm.lifetime.end.p0(i64 8, ptr %5) #14
  call void @llvm.lifetime.end.p0(i64 8, ptr %4) #14
  call void @llvm.lifetime.end.p0(i64 8, ptr %3) #14
  ret void
}