; Function Attrs: nounwind uwtable
define internal fastcc void @perform_work_item(ptr noundef readonly captures(none) %0) unnamed_addr #4 {
  %2 = alloca [198 x i8], align 16
  %3 = alloca [14 x i8], align 1
  %4 = alloca [1 x %struct.__jmp_buf_tag], align 16
  %5 = getelementptr inbounds nuw i8, ptr %0, i64 12
  %6 = load i32, ptr %5, align 4
  %7 = call ptr @get_rel_name(i32 noundef %6) #18
  %8 = load i32, ptr %5, align 4
  %9 = call i32 @get_rel_namespace(i32 noundef %8) #18
  %10 = call ptr @get_namespace_name(i32 noundef %9) #18
  %11 = load i32, ptr @MyDatabaseId, align 4
  %12 = call ptr @get_database_name(i32 noundef %11) #18
  %13 = icmp ne ptr %7, null
  %14 = icmp ne ptr %10, null
  %or.cond = select i1 %13, i1 %14, i1 false
  %15 = icmp ne ptr %12, null
  %or.cond3 = select i1 %or.cond, i1 %15, i1 false
  br i1 %or.cond3, label %16, label %60

16:                                               ; preds = %1
  call void @llvm.lifetime.start.p0(i64 198, ptr nonnull %2) #18
  call void @llvm.lifetime.start.p0(i64 14, ptr nonnull %3) #18
  %17 = load i32, ptr %0, align 4
  %cond.i = icmp eq i32 %17, 0
  br i1 %cond.i, label %18, label %20

18:                                               ; preds = %16
  %19 = call i32 (ptr, i64, ptr, ...) @pg_snprintf(ptr noundef nonnull %2, i64 noundef 184, ptr noundef nonnull @.str.52) #18
  br label %20

20:                                               ; preds = %18, %16
  %21 = call i64 @strlen(ptr noundef nonnull dereferenceable(1) %2) #22
  %22 = getelementptr inbounds nuw i8, ptr %0, i64 16
  %23 = load i32, ptr %22, align 4
  %.not.i = icmp eq i32 %23, -1
  br i1 %.not.i, label %26, label %24

24:                                               ; preds = %20
  %25 = call i32 (ptr, i64, ptr, ...) @pg_snprintf(ptr noundef nonnull %3, i64 noundef 14, ptr noundef nonnull @.str.53, i32 noundef %23) #18
  br label %autovac_report_workitem.exit

26:                                               ; preds = %20
  store i8 0, ptr %3, align 1
  br label %autovac_report_workitem.exit

autovac_report_workitem.exit:                     ; preds = %24, %26
  %sext.i = shl i64 %21, 32
  %27 = ashr exact i64 %sext.i, 32
  %28 = getelementptr inbounds i8, ptr %2, i64 %27
  %sext6.i = sub i64 790273982464, %sext.i
  %29 = ashr exact i64 %sext6.i, 32
  %30 = call i32 (ptr, i64, ptr, ...) @pg_snprintf(ptr noundef nonnull %28, i64 noundef %29, ptr noundef nonnull @.str.48, ptr noundef nonnull %10, ptr noundef nonnull %7, ptr noundef nonnull %3) #18
  call void @SetCurrentStatementStartTimestamp() #18
  call void @pgstat_report_activity(i32 noundef 2, ptr noundef nonnull %2) #18
  call void @llvm.lifetime.end.p0(i64 14, ptr nonnull %3) #18
  call void @llvm.lifetime.end.p0(i64 198, ptr nonnull %2) #18
  %31 = load ptr, ptr @PortalContext, align 8
  call void @MemoryContextReset(ptr noundef %31) #18
  %32 = load ptr, ptr @PG_exception_stack, align 8
  %33 = load ptr, ptr @error_context_stack, align 8
  call void @llvm.lifetime.start.p0(i64 200, ptr nonnull %4) #18
  %34 = call i32 @__sigsetjmp(ptr noundef nonnull %4, i32 noundef 0) #19
  %35 = icmp eq i32 %34, 0
  br i1 %35, label %36, label %51

36:                                               ; preds = %autovac_report_workitem.exit
  store ptr %4, ptr @PG_exception_stack, align 8
  %37 = load ptr, ptr @PortalContext, align 8
  store ptr %37, ptr @CurrentMemoryContext, align 8
  %38 = load i32, ptr %0, align 4
  %cond = icmp eq i32 %38, 0
  br i1 %cond, label %39, label %45

39:                                               ; preds = %36
  %40 = load i32, ptr %5, align 4
  %41 = zext i32 %40 to i64
  %42 = load i32, ptr %22, align 4
  %43 = zext i32 %42 to i64
  %44 = call i64 @DirectFunctionCall2Coll(ptr noundef nonnull @brin_summarize_range, i32 noundef 0, i64 noundef %41, i64 noundef %43) #18
  br label %50

45:                                               ; preds = %36
  %46 = call zeroext i1 @errstart(i32 noundef 19, ptr noundef null) #18
  br i1 %46, label %47, label %50

47:                                               ; preds = %45
  %48 = load i32, ptr %0, align 4
  %49 = call i32 (ptr, ...) @errmsg_internal(ptr noundef nonnull @.str.50, i32 noundef %48) #18
  call void @errfinish(ptr noundef nonnull @.str.1, i32 noundef 2629, ptr noundef nonnull @__func__.perform_work_item) #18
  br label %50

50:                                               ; preds = %45, %47, %39
  store volatile i32 0, ptr @QueryCancelPending, align 4
  br label %.thread

51:                                               ; preds = %autovac_report_workitem.exit
  store ptr %32, ptr @PG_exception_stack, align 8
  store ptr %33, ptr @error_context_stack, align 8
  %52 = load volatile i32, ptr @InterruptHoldoffCount, align 4
  %53 = add i32 %52, 1
  store volatile i32 %53, ptr @InterruptHoldoffCount, align 4
  %54 = call i32 @set_errcontext_domain(ptr noundef null) #18
  %55 = call i32 (ptr, ...) @errcontext_msg(ptr noundef nonnull @.str.51, ptr noundef nonnull %12, ptr noundef nonnull %10, ptr noundef nonnull %7) #18
  call void @EmitErrorReport() #18
  call void @AbortOutOfAnyTransaction() #18
  call void @FlushErrorState() #18
  %56 = load ptr, ptr @PortalContext, align 8
  call void @MemoryContextReset(ptr noundef %56) #18
  call void @StartTransactionCommand() #18
  %57 = load volatile i32, ptr @InterruptHoldoffCount, align 4
  %58 = add i32 %57, -1
  store volatile i32 %58, ptr @InterruptHoldoffCount, align 4
  br label %.thread

.thread:                                          ; preds = %51, %50
  store ptr %32, ptr @PG_exception_stack, align 8
  store ptr %33, ptr @error_context_stack, align 8
  call void @llvm.lifetime.end.p0(i64 200, ptr nonnull %4) #18
  %59 = load ptr, ptr @AutovacMemCxt, align 8
  store ptr %59, ptr @CurrentMemoryContext, align 8
  br label %61

60:                                               ; preds = %1
  br i1 %15, label %61, label %62

61:                                               ; preds = %.thread, %60
  call void @pfree(ptr noundef nonnull %12) #18
  br label %62

62:                                               ; preds = %61, %60
  br i1 %14, label %63, label %64

63:                                               ; preds = %62
  call void @pfree(ptr noundef nonnull %10) #18
  br label %64

64:                                               ; preds = %63, %62
  br i1 %13, label %65, label %66

65:                                               ; preds = %64
  call void @pfree(ptr noundef nonnull %7) #18
  br label %66

66:                                               ; preds = %65, %64
  ret void
}